	.file	"compare_par.cpp"
	.text
	.section	.text._ZNSt9exceptionC2Ev,"axG",@progbits,_ZNSt9exceptionC5Ev,comdat
	.align 2
	.weak	_ZNSt9exceptionC2Ev
	.type	_ZNSt9exceptionC2Ev, @function
_ZNSt9exceptionC2Ev:
.LFB958:
	.cfi_startproc
	endbr64
	pushq	%rbp
	.cfi_def_cfa_offset 16
	.cfi_offset 6, -16
	movq	%rsp, %rbp
	.cfi_def_cfa_register 6
	movq	%rdi, -8(%rbp)
	leaq	16+_ZTVSt9exception(%rip), %rdx
	movq	-8(%rbp), %rax
	movq	%rdx, (%rax)
	nop
	popq	%rbp
	.cfi_def_cfa 7, 8
	ret
	.cfi_endproc
.LFE958:
	.size	_ZNSt9exceptionC2Ev, .-_ZNSt9exceptionC2Ev
	.weak	_ZNSt9exceptionC1Ev
	.set	_ZNSt9exceptionC1Ev,_ZNSt9exceptionC2Ev
	.section	.text._ZNSt11char_traitsIcE6lengthEPKc,"axG",@progbits,_ZNSt11char_traitsIcE6lengthEPKc,comdat
	.weak	_ZNSt11char_traitsIcE6lengthEPKc
	.type	_ZNSt11char_traitsIcE6lengthEPKc, @function
_ZNSt11char_traitsIcE6lengthEPKc:
.LFB1058:
	.cfi_startproc
	endbr64
	pushq	%rbp
	.cfi_def_cfa_offset 16
	.cfi_offset 6, -16
	movq	%rsp, %rbp
	.cfi_def_cfa_register 6
	subq	$32, %rsp
	movq	%rdi, -24(%rbp)
	movq	-24(%rbp), %rax
	movq	%rax, -8(%rbp)
	movl	$0, %eax
	testb	%al, %al
	je	.L4
	movq	-24(%rbp), %rax
	movq	%rax, %rdi
	call	_ZN9__gnu_cxx11char_traitsIcE6lengthEPKc
	jmp	.L5
.L4:
	movq	-24(%rbp), %rax
	movq	%rax, %rdi
	call	strlen@PLT
	nop
.L5:
	leave
	.cfi_def_cfa 7, 8
	ret
	.cfi_endproc
.LFE1058:
	.size	_ZNSt11char_traitsIcE6lengthEPKc, .-_ZNSt11char_traitsIcE6lengthEPKc
	.section	.rodata
.LC0:
	.string	", in function "
	.section	.text._ZN4blas5ErrorC2EPKcS2_,"axG",@progbits,_ZN4blas5ErrorC5EPKcS2_,comdat
	.align 2
	.weak	_ZN4blas5ErrorC2EPKcS2_
	.type	_ZN4blas5ErrorC2EPKcS2_, @function
_ZN4blas5ErrorC2EPKcS2_:
.LFB3006:
	.cfi_startproc
	.cfi_personality 0x9b,DW.ref.__gxx_personality_v0
	.cfi_lsda 0x1b,.LLSDA3006
	endbr64
	pushq	%rbp
	.cfi_def_cfa_offset 16
	.cfi_offset 6, -16
	movq	%rsp, %rbp
	.cfi_def_cfa_register 6
	pushq	%rbx
	subq	$136, %rsp
	.cfi_offset 3, -24
	movq	%rdi, -120(%rbp)
	movq	%rsi, -128(%rbp)
	movq	%rdx, -136(%rbp)
	movq	%fs:40, %rax
	movq	%rax, -24(%rbp)
	xorl	%eax, %eax
	movq	-120(%rbp), %rax
	movq	%rax, %rdi
	call	_ZNSt9exceptionC2Ev
	leaq	16+_ZTVN4blas5ErrorE(%rip), %rdx
	movq	-120(%rbp), %rax
	movq	%rdx, (%rax)
	leaq	-97(%rbp), %rax
	movq	%rax, %rdi
	call	_ZNSaIcEC1Ev@PLT
	leaq	-97(%rbp), %rdx
	movq	-128(%rbp), %rcx
	leaq	-64(%rbp), %rax
	movq	%rcx, %rsi
	movq	%rax, %rdi
.LEHB0:
	call	_ZNSt7__cxx1112basic_stringIcSt11char_traitsIcESaIcEEC1IS3_EEPKcRKS3_
.LEHE0:
	leaq	-96(%rbp), %rax
	leaq	-64(%rbp), %rcx
	leaq	.LC0(%rip), %rdx
	movq	%rcx, %rsi
	movq	%rax, %rdi
.LEHB1:
	call	_ZStplIcSt11char_traitsIcESaIcEENSt7__cxx1112basic_stringIT_T0_T1_EEOS8_PKS5_
.LEHE1:
	movq	-120(%rbp), %rax
	leaq	8(%rax), %rcx
	movq	-136(%rbp), %rdx
	leaq	-96(%rbp), %rax
	movq	%rax, %rsi
	movq	%rcx, %rdi
.LEHB2:
	call	_ZStplIcSt11char_traitsIcESaIcEENSt7__cxx1112basic_stringIT_T0_T1_EEOS8_PKS5_
.LEHE2:
	leaq	-96(%rbp), %rax
	movq	%rax, %rdi
	call	_ZNSt7__cxx1112basic_stringIcSt11char_traitsIcESaIcEED1Ev@PLT
	leaq	-64(%rbp), %rax
	movq	%rax, %rdi
	call	_ZNSt7__cxx1112basic_stringIcSt11char_traitsIcESaIcEED1Ev@PLT
	leaq	-97(%rbp), %rax
	movq	%rax, %rdi
	call	_ZNSaIcED1Ev@PLT
	nop
	movq	-24(%rbp), %rax
	subq	%fs:40, %rax
	je	.L10
	jmp	.L14
.L13:
	endbr64
	movq	%rax, %rbx
	leaq	-96(%rbp), %rax
	movq	%rax, %rdi
	call	_ZNSt7__cxx1112basic_stringIcSt11char_traitsIcESaIcEED1Ev@PLT
	jmp	.L8
.L12:
	endbr64
	movq	%rax, %rbx
.L8:
	leaq	-64(%rbp), %rax
	movq	%rax, %rdi
	call	_ZNSt7__cxx1112basic_stringIcSt11char_traitsIcESaIcEED1Ev@PLT
	jmp	.L9
.L11:
	endbr64
	movq	%rax, %rbx
.L9:
	leaq	-97(%rbp), %rax
	movq	%rax, %rdi
	call	_ZNSaIcED1Ev@PLT
	movq	-120(%rbp), %rax
	movq	%rax, %rdi
	call	_ZNSt9exceptionD2Ev@PLT
	movq	%rbx, %rax
	movq	%rax, %rdi
.LEHB3:
	call	_Unwind_Resume@PLT
.LEHE3:
.L14:
	call	__stack_chk_fail@PLT
.L10:
	movq	-8(%rbp), %rbx
	leave
	.cfi_def_cfa 7, 8
	ret
	.cfi_endproc
.LFE3006:
	.globl	__gxx_personality_v0
	.section	.gcc_except_table._ZN4blas5ErrorC2EPKcS2_,"aG",@progbits,_ZN4blas5ErrorC5EPKcS2_,comdat
.LLSDA3006:
	.byte	0xff
	.byte	0xff
	.byte	0x1
	.uleb128 .LLSDACSE3006-.LLSDACSB3006
.LLSDACSB3006:
	.uleb128 .LEHB0-.LFB3006
	.uleb128 .LEHE0-.LEHB0
	.uleb128 .L11-.LFB3006
	.uleb128 0
	.uleb128 .LEHB1-.LFB3006
	.uleb128 .LEHE1-.LEHB1
	.uleb128 .L12-.LFB3006
	.uleb128 0
	.uleb128 .LEHB2-.LFB3006
	.uleb128 .LEHE2-.LEHB2
	.uleb128 .L13-.LFB3006
	.uleb128 0
	.uleb128 .LEHB3-.LFB3006
	.uleb128 .LEHE3-.LEHB3
	.uleb128 0
	.uleb128 0
.LLSDACSE3006:
	.section	.text._ZN4blas5ErrorC2EPKcS2_,"axG",@progbits,_ZN4blas5ErrorC5EPKcS2_,comdat
	.size	_ZN4blas5ErrorC2EPKcS2_, .-_ZN4blas5ErrorC2EPKcS2_
	.weak	_ZN4blas5ErrorC1EPKcS2_
	.set	_ZN4blas5ErrorC1EPKcS2_,_ZN4blas5ErrorC2EPKcS2_
	.section	.text._ZNK4blas5Error4whatEv,"axG",@progbits,_ZNK4blas5Error4whatEv,comdat
	.align 2
	.weak	_ZNK4blas5Error4whatEv
	.type	_ZNK4blas5Error4whatEv, @function
_ZNK4blas5Error4whatEv:
.LFB3008:
	.cfi_startproc
	endbr64
	pushq	%rbp
	.cfi_def_cfa_offset 16
	.cfi_offset 6, -16
	movq	%rsp, %rbp
	.cfi_def_cfa_register 6
	subq	$16, %rsp
	movq	%rdi, -8(%rbp)
	movq	-8(%rbp), %rax
	addq	$8, %rax
	movq	%rax, %rdi
	call	_ZNKSt7__cxx1112basic_stringIcSt11char_traitsIcESaIcEE5c_strEv@PLT
	leave
	.cfi_def_cfa 7, 8
	ret
	.cfi_endproc
.LFE3008:
	.size	_ZNK4blas5Error4whatEv, .-_ZNK4blas5Error4whatEv
	.section	.text._ZN4blas8internal8throw_ifEbPKcS2_,"axG",@progbits,_ZN4blas8internal8throw_ifEbPKcS2_,comdat
	.weak	_ZN4blas8internal8throw_ifEbPKcS2_
	.type	_ZN4blas8internal8throw_ifEbPKcS2_, @function
_ZN4blas8internal8throw_ifEbPKcS2_:
.LFB3027:
	.cfi_startproc
	.cfi_personality 0x9b,DW.ref.__gxx_personality_v0
	.cfi_lsda 0x1b,.LLSDA3027
	endbr64
	pushq	%rbp
	.cfi_def_cfa_offset 16
	.cfi_offset 6, -16
	movq	%rsp, %rbp
	.cfi_def_cfa_register 6
	pushq	%r12
	pushq	%rbx
	subq	$32, %rsp
	.cfi_offset 12, -24
	.cfi_offset 3, -32
	movl	%edi, %eax
	movq	%rsi, -32(%rbp)
	movq	%rdx, -40(%rbp)
	movb	%al, -20(%rbp)
	cmpb	$0, -20(%rbp)
	je	.L21
	movl	$40, %edi
	call	__cxa_allocate_exception@PLT
	movq	%rax, %rbx
	movq	-40(%rbp), %rdx
	movq	-32(%rbp), %rax
	movq	%rax, %rsi
	movq	%rbx, %rdi
.LEHB4:
	call	_ZN4blas5ErrorC1EPKcS2_
.LEHE4:
	leaq	_ZN4blas5ErrorD1Ev(%rip), %rax
	movq	%rax, %rdx
	leaq	_ZTIN4blas5ErrorE(%rip), %rax
	movq	%rax, %rsi
	movq	%rbx, %rdi
.LEHB5:
	call	__cxa_throw@PLT
.L20:
	endbr64
	movq	%rax, %r12
	movq	%rbx, %rdi
	call	__cxa_free_exception@PLT
	movq	%r12, %rax
	movq	%rax, %rdi
	call	_Unwind_Resume@PLT
.LEHE5:
.L21:
	nop
	addq	$32, %rsp
	popq	%rbx
	popq	%r12
	popq	%rbp
	.cfi_def_cfa 7, 8
	ret
	.cfi_endproc
.LFE3027:
	.section	.gcc_except_table._ZN4blas8internal8throw_ifEbPKcS2_,"aG",@progbits,_ZN4blas8internal8throw_ifEbPKcS2_,comdat
.LLSDA3027:
	.byte	0xff
	.byte	0xff
	.byte	0x1
	.uleb128 .LLSDACSE3027-.LLSDACSB3027
.LLSDACSB3027:
	.uleb128 .LEHB4-.LFB3027
	.uleb128 .LEHE4-.LEHB4
	.uleb128 .L20-.LFB3027
	.uleb128 0
	.uleb128 .LEHB5-.LFB3027
	.uleb128 .LEHE5-.LEHB5
	.uleb128 0
	.uleb128 0
.LLSDACSE3027:
	.section	.text._ZN4blas8internal8throw_ifEbPKcS2_,"axG",@progbits,_ZN4blas8internal8throw_ifEbPKcS2_,comdat
	.size	_ZN4blas8internal8throw_ifEbPKcS2_, .-_ZN4blas8internal8throw_ifEbPKcS2_
	.local	_ZStL8__ioinit
	.comm	_ZStL8__ioinit,1,1
	.text
	.globl	main
	.type	main, @function
main:
.LFB3595:
	.cfi_startproc
	endbr64
	pushq	%rbp
	.cfi_def_cfa_offset 16
	.cfi_offset 6, -16
	movq	%rsp, %rbp
	.cfi_def_cfa_register 6
	subq	$48, %rsp
	movl	$1000000, -36(%rbp)
	movl	$1, -32(%rbp)
	movl	$1, -28(%rbp)
	movl	-36(%rbp), %eax
	cltq
	salq	$3, %rax
	movq	%rax, %rdi
	call	malloc@PLT
	movq	%rax, -24(%rbp)
	movl	-36(%rbp), %eax
	cltq
	salq	$3, %rax
	movq	%rax, %rdi
	call	malloc@PLT
	movq	%rax, -16(%rbp)
	movl	$0, -40(%rbp)
	jmp	.L23
.L24:
	movl	-40(%rbp), %eax
	leaq	0(,%rax,8), %rdx
	movq	-24(%rbp), %rax
	addq	%rdx, %rax
	movsd	.LC1(%rip), %xmm0
	movsd	%xmm0, (%rax)
	movl	-40(%rbp), %eax
	leaq	0(,%rax,8), %rdx
	movq	-16(%rbp), %rax
	addq	%rdx, %rax
	movsd	.LC2(%rip), %xmm0
	movsd	%xmm0, (%rax)
	addl	$1, -40(%rbp)
.L23:
	movl	-36(%rbp), %eax
	cmpl	%eax, -40(%rbp)
	jb	.L24
	movl	-36(%rbp), %eax
	cltq
	movq	-16(%rbp), %rdx
	movq	-24(%rbp), %rsi
	movl	$1, %r8d
	movq	%rdx, %rcx
	movl	$1, %edx
	movq	%rax, %rdi
	call	_ZN4blas3dotIddEENS_18scalar_type_traitsIJT_T0_EE4typeElPKS2_lPKS3_l
	movq	%xmm0, %rax
	movq	%rax, -8(%rbp)
	movl	$0, %eax
	leave
	.cfi_def_cfa 7, 8
	ret
	.cfi_endproc
.LFE3595:
	.size	main, .-main
	.section	.text._ZN9__gnu_cxx11char_traitsIcE2eqERKcS3_,"axG",@progbits,_ZN9__gnu_cxx11char_traitsIcE2eqERKcS3_,comdat
	.weak	_ZN9__gnu_cxx11char_traitsIcE2eqERKcS3_
	.type	_ZN9__gnu_cxx11char_traitsIcE2eqERKcS3_, @function
_ZN9__gnu_cxx11char_traitsIcE2eqERKcS3_:
.LFB3648:
	.cfi_startproc
	endbr64
	pushq	%rbp
	.cfi_def_cfa_offset 16
	.cfi_offset 6, -16
	movq	%rsp, %rbp
	.cfi_def_cfa_register 6
	movq	%rdi, -8(%rbp)
	movq	%rsi, -16(%rbp)
	movq	-8(%rbp), %rax
	movzbl	(%rax), %edx
	movq	-16(%rbp), %rax
	movzbl	(%rax), %eax
	cmpb	%al, %dl
	sete	%al
	popq	%rbp
	.cfi_def_cfa 7, 8
	ret
	.cfi_endproc
.LFE3648:
	.size	_ZN9__gnu_cxx11char_traitsIcE2eqERKcS3_, .-_ZN9__gnu_cxx11char_traitsIcE2eqERKcS3_
	.section	.text._ZN9__gnu_cxx11char_traitsIcE6lengthEPKc,"axG",@progbits,_ZN9__gnu_cxx11char_traitsIcE6lengthEPKc,comdat
	.align 2
	.weak	_ZN9__gnu_cxx11char_traitsIcE6lengthEPKc
	.type	_ZN9__gnu_cxx11char_traitsIcE6lengthEPKc, @function
_ZN9__gnu_cxx11char_traitsIcE6lengthEPKc:
.LFB3647:
	.cfi_startproc
	endbr64
	pushq	%rbp
	.cfi_def_cfa_offset 16
	.cfi_offset 6, -16
	movq	%rsp, %rbp
	.cfi_def_cfa_register 6
	subq	$48, %rsp
	movq	%rdi, -40(%rbp)
	movq	%fs:40, %rax
	movq	%rax, -8(%rbp)
	xorl	%eax, %eax
	movq	$0, -16(%rbp)
	jmp	.L29
.L30:
	addq	$1, -16(%rbp)
.L29:
	movb	$0, -17(%rbp)
	movq	-40(%rbp), %rdx
	movq	-16(%rbp), %rax
	addq	%rax, %rdx
	leaq	-17(%rbp), %rax
	movq	%rax, %rsi
	movq	%rdx, %rdi
	call	_ZN9__gnu_cxx11char_traitsIcE2eqERKcS3_
	xorl	$1, %eax
	testb	%al, %al
	jne	.L30
	movq	-16(%rbp), %rax
	movq	-8(%rbp), %rdx
	subq	%fs:40, %rdx
	je	.L32
	call	__stack_chk_fail@PLT
.L32:
	leave
	.cfi_def_cfa 7, 8
	ret
	.cfi_endproc
.LFE3647:
	.size	_ZN9__gnu_cxx11char_traitsIcE6lengthEPKc, .-_ZN9__gnu_cxx11char_traitsIcE6lengthEPKc
	.section	.text._ZNSt7__cxx1112basic_stringIcSt11char_traitsIcESaIcEE12_Alloc_hiderD2Ev,"axG",@progbits,_ZNSt7__cxx1112basic_stringIcSt11char_traitsIcESaIcEE12_Alloc_hiderD5Ev,comdat
	.align 2
	.weak	_ZNSt7__cxx1112basic_stringIcSt11char_traitsIcESaIcEE12_Alloc_hiderD2Ev
	.type	_ZNSt7__cxx1112basic_stringIcSt11char_traitsIcESaIcEE12_Alloc_hiderD2Ev, @function
_ZNSt7__cxx1112basic_stringIcSt11char_traitsIcESaIcEE12_Alloc_hiderD2Ev:
.LFB3755:
	.cfi_startproc
	endbr64
	pushq	%rbp
	.cfi_def_cfa_offset 16
	.cfi_offset 6, -16
	movq	%rsp, %rbp
	.cfi_def_cfa_register 6
	subq	$16, %rsp
	movq	%rdi, -8(%rbp)
	movq	-8(%rbp), %rax
	movq	%rax, %rdi
	call	_ZNSaIcED2Ev@PLT
	nop
	leave
	.cfi_def_cfa 7, 8
	ret
	.cfi_endproc
.LFE3755:
	.size	_ZNSt7__cxx1112basic_stringIcSt11char_traitsIcESaIcEE12_Alloc_hiderD2Ev, .-_ZNSt7__cxx1112basic_stringIcSt11char_traitsIcESaIcEE12_Alloc_hiderD2Ev
	.weak	_ZNSt7__cxx1112basic_stringIcSt11char_traitsIcESaIcEE12_Alloc_hiderD1Ev
	.set	_ZNSt7__cxx1112basic_stringIcSt11char_traitsIcESaIcEE12_Alloc_hiderD1Ev,_ZNSt7__cxx1112basic_stringIcSt11char_traitsIcESaIcEE12_Alloc_hiderD2Ev
	.section	.text._ZNSt7__cxx1112basic_stringIcSt11char_traitsIcESaIcEEC2IS3_EEPKcRKS3_,"axG",@progbits,_ZNSt7__cxx1112basic_stringIcSt11char_traitsIcESaIcEEC5IS3_EEPKcRKS3_,comdat
	.align 2
	.weak	_ZNSt7__cxx1112basic_stringIcSt11char_traitsIcESaIcEEC2IS3_EEPKcRKS3_
	.type	_ZNSt7__cxx1112basic_stringIcSt11char_traitsIcESaIcEEC2IS3_EEPKcRKS3_, @function
_ZNSt7__cxx1112basic_stringIcSt11char_traitsIcESaIcEEC2IS3_EEPKcRKS3_:
.LFB3914:
	.cfi_startproc
	.cfi_personality 0x9b,DW.ref.__gxx_personality_v0
	.cfi_lsda 0x1b,.LLSDA3914
	endbr64
	pushq	%rbp
	.cfi_def_cfa_offset 16
	.cfi_offset 6, -16
	movq	%rsp, %rbp
	.cfi_def_cfa_register 6
	pushq	%rbx
	subq	$72, %rsp
	.cfi_offset 3, -24
	movq	%rdi, -56(%rbp)
	movq	%rsi, -64(%rbp)
	movq	%rdx, -72(%rbp)
	movq	%fs:40, %rax
	movq	%rax, -24(%rbp)
	xorl	%eax, %eax
	movq	-56(%rbp), %rbx
	movq	-56(%rbp), %rax
	movq	%rax, %rdi
.LEHB6:
	call	_ZNSt7__cxx1112basic_stringIcSt11char_traitsIcESaIcEE13_M_local_dataEv@PLT
	movq	%rax, %rcx
	movq	-72(%rbp), %rax
	movq	%rax, %rdx
	movq	%rcx, %rsi
	movq	%rbx, %rdi
	call	_ZNSt7__cxx1112basic_stringIcSt11char_traitsIcESaIcEE12_Alloc_hiderC1EPcRKS3_@PLT
.LEHE6:
	cmpq	$0, -64(%rbp)
	je	.L35
	movq	-64(%rbp), %rax
	movq	%rax, %rdi
.LEHB7:
	call	_ZNSt11char_traitsIcE6lengthEPKc
	movq	-64(%rbp), %rdx
	addq	%rdx, %rax
	jmp	.L36
.L35:
	movl	$1, %eax
.L36:
	movq	%rax, -32(%rbp)
	movq	-32(%rbp), %rdx
	movq	-64(%rbp), %rcx
	movq	-56(%rbp), %rax
	movq	%rcx, %rsi
	movq	%rax, %rdi
	call	_ZNSt7__cxx1112basic_stringIcSt11char_traitsIcESaIcEE12_M_constructIPKcEEvT_S8_St20forward_iterator_tag
.LEHE7:
	jmp	.L40
.L39:
	endbr64
	movq	%rax, %rbx
	movq	-56(%rbp), %rax
	movq	%rax, %rdi
	call	_ZNSt7__cxx1112basic_stringIcSt11char_traitsIcESaIcEE12_Alloc_hiderD1Ev
	movq	%rbx, %rax
	movq	%rax, %rdi
.LEHB8:
	call	_Unwind_Resume@PLT
.LEHE8:
.L40:
	movq	-24(%rbp), %rax
	subq	%fs:40, %rax
	je	.L38
	call	__stack_chk_fail@PLT
.L38:
	movq	-8(%rbp), %rbx
	leave
	.cfi_def_cfa 7, 8
	ret
	.cfi_endproc
.LFE3914:
	.section	.gcc_except_table._ZNSt7__cxx1112basic_stringIcSt11char_traitsIcESaIcEEC2IS3_EEPKcRKS3_,"aG",@progbits,_ZNSt7__cxx1112basic_stringIcSt11char_traitsIcESaIcEEC5IS3_EEPKcRKS3_,comdat
.LLSDA3914:
	.byte	0xff
	.byte	0xff
	.byte	0x1
	.uleb128 .LLSDACSE3914-.LLSDACSB3914
.LLSDACSB3914:
	.uleb128 .LEHB6-.LFB3914
	.uleb128 .LEHE6-.LEHB6
	.uleb128 0
	.uleb128 0
	.uleb128 .LEHB7-.LFB3914
	.uleb128 .LEHE7-.LEHB7
	.uleb128 .L39-.LFB3914
	.uleb128 0
	.uleb128 .LEHB8-.LFB3914
	.uleb128 .LEHE8-.LEHB8
	.uleb128 0
	.uleb128 0
.LLSDACSE3914:
	.section	.text._ZNSt7__cxx1112basic_stringIcSt11char_traitsIcESaIcEEC2IS3_EEPKcRKS3_,"axG",@progbits,_ZNSt7__cxx1112basic_stringIcSt11char_traitsIcESaIcEEC5IS3_EEPKcRKS3_,comdat
	.size	_ZNSt7__cxx1112basic_stringIcSt11char_traitsIcESaIcEEC2IS3_EEPKcRKS3_, .-_ZNSt7__cxx1112basic_stringIcSt11char_traitsIcESaIcEEC2IS3_EEPKcRKS3_
	.weak	_ZNSt7__cxx1112basic_stringIcSt11char_traitsIcESaIcEEC1IS3_EEPKcRKS3_
	.set	_ZNSt7__cxx1112basic_stringIcSt11char_traitsIcESaIcEEC1IS3_EEPKcRKS3_,_ZNSt7__cxx1112basic_stringIcSt11char_traitsIcESaIcEEC2IS3_EEPKcRKS3_
	.section	.text._ZStplIcSt11char_traitsIcESaIcEENSt7__cxx1112basic_stringIT_T0_T1_EEOS8_PKS5_,"axG",@progbits,_ZStplIcSt11char_traitsIcESaIcEENSt7__cxx1112basic_stringIT_T0_T1_EEOS8_PKS5_,comdat
	.weak	_ZStplIcSt11char_traitsIcESaIcEENSt7__cxx1112basic_stringIT_T0_T1_EEOS8_PKS5_
	.type	_ZStplIcSt11char_traitsIcESaIcEENSt7__cxx1112basic_stringIT_T0_T1_EEOS8_PKS5_, @function
_ZStplIcSt11char_traitsIcESaIcEENSt7__cxx1112basic_stringIT_T0_T1_EEOS8_PKS5_:
.LFB3916:
	.cfi_startproc
	endbr64
	pushq	%rbp
	.cfi_def_cfa_offset 16
	.cfi_offset 6, -16
	movq	%rsp, %rbp
	.cfi_def_cfa_register 6
	subq	$32, %rsp
	movq	%rdi, -8(%rbp)
	movq	%rsi, -16(%rbp)
	movq	%rdx, -24(%rbp)
	movq	-24(%rbp), %rdx
	movq	-16(%rbp), %rax
	movq	%rdx, %rsi
	movq	%rax, %rdi
	call	_ZNSt7__cxx1112basic_stringIcSt11char_traitsIcESaIcEE6appendEPKc@PLT
	movq	%rax, %rdi
	call	_ZSt4moveIRNSt7__cxx1112basic_stringIcSt11char_traitsIcESaIcEEEEONSt16remove_referenceIT_E4typeEOS8_
	movq	%rax, %rdx
	movq	-8(%rbp), %rax
	movq	%rdx, %rsi
	movq	%rax, %rdi
	call	_ZNSt7__cxx1112basic_stringIcSt11char_traitsIcESaIcEEC1EOS4_@PLT
	movq	-8(%rbp), %rax
	leave
	.cfi_def_cfa 7, 8
	ret
	.cfi_endproc
.LFE3916:
	.size	_ZStplIcSt11char_traitsIcESaIcEENSt7__cxx1112basic_stringIT_T0_T1_EEOS8_PKS5_, .-_ZStplIcSt11char_traitsIcESaIcEENSt7__cxx1112basic_stringIT_T0_T1_EEOS8_PKS5_
	.section	.rodata
.LC3:
	.string	"dot"
.LC4:
	.string	"n < 0"
.LC5:
	.string	"incx == 0"
.LC6:
	.string	"incy == 0"
	.section	.text._ZN4blas3dotIddEENS_18scalar_type_traitsIJT_T0_EE4typeElPKS2_lPKS3_l,"axG",@progbits,_ZN4blas3dotIddEENS_18scalar_type_traitsIJT_T0_EE4typeElPKS2_lPKS3_l,comdat
	.weak	_ZN4blas3dotIddEENS_18scalar_type_traitsIJT_T0_EE4typeElPKS2_lPKS3_l
	.type	_ZN4blas3dotIddEENS_18scalar_type_traitsIJT_T0_EE4typeElPKS2_lPKS3_l, @function
_ZN4blas3dotIddEENS_18scalar_type_traitsIJT_T0_EE4typeElPKS2_lPKS3_l:
.LFB3931:
	.cfi_startproc
	endbr64
	pushq	%rbp
	.cfi_def_cfa_offset 16
	.cfi_offset 6, -16
	movq	%rsp, %rbp
	.cfi_def_cfa_register 6
	subq	$96, %rsp
	movq	%rdi, -56(%rbp)
	movq	%rsi, -64(%rbp)
	movq	%rdx, -72(%rbp)
	movq	%rcx, -80(%rbp)
	movq	%r8, -88(%rbp)
	movq	-56(%rbp), %rax
	shrq	$63, %rax
	movzbl	%al, %eax
	leaq	.LC3(%rip), %rdx
	leaq	.LC4(%rip), %rcx
	movq	%rcx, %rsi
	movl	%eax, %edi
	call	_ZN4blas8internal8throw_ifEbPKcS2_
	cmpq	$0, -72(%rbp)
	sete	%al
	movzbl	%al, %eax
	leaq	.LC3(%rip), %rdx
	leaq	.LC5(%rip), %rcx
	movq	%rcx, %rsi
	movl	%eax, %edi
	call	_ZN4blas8internal8throw_ifEbPKcS2_
	cmpq	$0, -88(%rbp)
	sete	%al
	movzbl	%al, %eax
	leaq	.LC3(%rip), %rdx
	leaq	.LC6(%rip), %rcx
	movq	%rcx, %rsi
	movl	%eax, %edi
	call	_ZN4blas8internal8throw_ifEbPKcS2_
	pxor	%xmm0, %xmm0
	movsd	%xmm0, -40(%rbp)
	cmpq	$1, -72(%rbp)
	jne	.L44
	cmpq	$1, -88(%rbp)
	jne	.L44
	movq	$0, -32(%rbp)
	jmp	.L45
.L46:
	movq	-32(%rbp), %rax
	leaq	0(,%rax,8), %rdx
	movq	-64(%rbp), %rax
	addq	%rdx, %rax
	movq	(%rax), %rax
	movq	%rax, %xmm0
	call	_ZN4blas4conjIdEET_S1_
	movq	-32(%rbp), %rax
	leaq	0(,%rax,8), %rdx
	movq	-80(%rbp), %rax
	addq	%rdx, %rax
	movsd	(%rax), %xmm1
	mulsd	%xmm1, %xmm0
	movsd	-40(%rbp), %xmm1
	addsd	%xmm1, %xmm0
	movsd	%xmm0, -40(%rbp)
	addq	$1, -32(%rbp)
.L45:
	movq	-32(%rbp), %rax
	cmpq	-56(%rbp), %rax
	jl	.L46
	jmp	.L47
.L44:
	cmpq	$0, -72(%rbp)
	jg	.L48
	movl	$1, %eax
	subq	-56(%rbp), %rax
	imulq	-72(%rbp), %rax
	jmp	.L49
.L48:
	movl	$0, %eax
.L49:
	movq	%rax, -24(%rbp)
	cmpq	$0, -88(%rbp)
	jg	.L50
	movl	$1, %eax
	subq	-56(%rbp), %rax
	imulq	-88(%rbp), %rax
	jmp	.L51
.L50:
	movl	$0, %eax
.L51:
	movq	%rax, -16(%rbp)
	movq	$0, -8(%rbp)
	jmp	.L52
.L53:
	movq	-24(%rbp), %rax
	leaq	0(,%rax,8), %rdx
	movq	-64(%rbp), %rax
	addq	%rdx, %rax
	movq	(%rax), %rax
	movq	%rax, %xmm0
	call	_ZN4blas4conjIdEET_S1_
	movq	-16(%rbp), %rax
	leaq	0(,%rax,8), %rdx
	movq	-80(%rbp), %rax
	addq	%rdx, %rax
	movsd	(%rax), %xmm1
	mulsd	%xmm1, %xmm0
	movsd	-40(%rbp), %xmm1
	addsd	%xmm1, %xmm0
	movsd	%xmm0, -40(%rbp)
	movq	-72(%rbp), %rax
	addq	%rax, -24(%rbp)
	movq	-88(%rbp), %rax
	addq	%rax, -16(%rbp)
	addq	$1, -8(%rbp)
.L52:
	movq	-8(%rbp), %rax
	cmpq	-56(%rbp), %rax
	jl	.L53
.L47:
	movsd	-40(%rbp), %xmm0
	movq	%xmm0, %rax
	movq	%rax, %xmm0
	leave
	.cfi_def_cfa 7, 8
	ret
	.cfi_endproc
.LFE3931:
	.size	_ZN4blas3dotIddEENS_18scalar_type_traitsIJT_T0_EE4typeElPKS2_lPKS3_l, .-_ZN4blas3dotIddEENS_18scalar_type_traitsIJT_T0_EE4typeElPKS2_lPKS3_l
	.section	.text._ZSt4moveIRNSt7__cxx1112basic_stringIcSt11char_traitsIcESaIcEEEEONSt16remove_referenceIT_E4typeEOS8_,"axG",@progbits,_ZSt4moveIRNSt7__cxx1112basic_stringIcSt11char_traitsIcESaIcEEEEONSt16remove_referenceIT_E4typeEOS8_,comdat
	.weak	_ZSt4moveIRNSt7__cxx1112basic_stringIcSt11char_traitsIcESaIcEEEEONSt16remove_referenceIT_E4typeEOS8_
	.type	_ZSt4moveIRNSt7__cxx1112basic_stringIcSt11char_traitsIcESaIcEEEEONSt16remove_referenceIT_E4typeEOS8_, @function
_ZSt4moveIRNSt7__cxx1112basic_stringIcSt11char_traitsIcESaIcEEEEONSt16remove_referenceIT_E4typeEOS8_:
.LFB4053:
	.cfi_startproc
	endbr64
	pushq	%rbp
	.cfi_def_cfa_offset 16
	.cfi_offset 6, -16
	movq	%rsp, %rbp
	.cfi_def_cfa_register 6
	movq	%rdi, -8(%rbp)
	movq	-8(%rbp), %rax
	popq	%rbp
	.cfi_def_cfa 7, 8
	ret
	.cfi_endproc
.LFE4053:
	.size	_ZSt4moveIRNSt7__cxx1112basic_stringIcSt11char_traitsIcESaIcEEEEONSt16remove_referenceIT_E4typeEOS8_, .-_ZSt4moveIRNSt7__cxx1112basic_stringIcSt11char_traitsIcESaIcEEEEONSt16remove_referenceIT_E4typeEOS8_
	.section	.text._ZSt8distanceIPKcENSt15iterator_traitsIT_E15difference_typeES3_S3_,"axG",@progbits,_ZSt8distanceIPKcENSt15iterator_traitsIT_E15difference_typeES3_S3_,comdat
	.weak	_ZSt8distanceIPKcENSt15iterator_traitsIT_E15difference_typeES3_S3_
	.type	_ZSt8distanceIPKcENSt15iterator_traitsIT_E15difference_typeES3_S3_, @function
_ZSt8distanceIPKcENSt15iterator_traitsIT_E15difference_typeES3_S3_:
.LFB4060:
	.cfi_startproc
	endbr64
	pushq	%rbp
	.cfi_def_cfa_offset 16
	.cfi_offset 6, -16
	movq	%rsp, %rbp
	.cfi_def_cfa_register 6
	subq	$16, %rsp
	movq	%rdi, -8(%rbp)
	movq	%rsi, -16(%rbp)
	leaq	-8(%rbp), %rax
	movq	%rax, %rdi
	call	_ZSt19__iterator_categoryIPKcENSt15iterator_traitsIT_E17iterator_categoryERKS3_
	movq	-8(%rbp), %rax
	movq	-16(%rbp), %rdx
	movq	%rdx, %rsi
	movq	%rax, %rdi
	call	_ZSt10__distanceIPKcENSt15iterator_traitsIT_E15difference_typeES3_S3_St26random_access_iterator_tag
	leave
	.cfi_def_cfa 7, 8
	ret
	.cfi_endproc
.LFE4060:
	.size	_ZSt8distanceIPKcENSt15iterator_traitsIT_E15difference_typeES3_S3_, .-_ZSt8distanceIPKcENSt15iterator_traitsIT_E15difference_typeES3_S3_
	.section	.rodata
	.align 8
.LC8:
	.string	"basic_string::_M_construct null not valid"
	.section	.text._ZNSt7__cxx1112basic_stringIcSt11char_traitsIcESaIcEE12_M_constructIPKcEEvT_S8_St20forward_iterator_tag,"axG",@progbits,_ZNSt7__cxx1112basic_stringIcSt11char_traitsIcESaIcEE12_M_constructIPKcEEvT_S8_St20forward_iterator_tag,comdat
	.align 2
	.weak	_ZNSt7__cxx1112basic_stringIcSt11char_traitsIcESaIcEE12_M_constructIPKcEEvT_S8_St20forward_iterator_tag
	.type	_ZNSt7__cxx1112basic_stringIcSt11char_traitsIcESaIcEE12_M_constructIPKcEEvT_S8_St20forward_iterator_tag, @function
_ZNSt7__cxx1112basic_stringIcSt11char_traitsIcESaIcEE12_M_constructIPKcEEvT_S8_St20forward_iterator_tag:
.LFB4059:
	.cfi_startproc
	.cfi_personality 0x9b,DW.ref.__gxx_personality_v0
	.cfi_lsda 0x1b,.LLSDA4059
	endbr64
	pushq	%rbp
	.cfi_def_cfa_offset 16
	.cfi_offset 6, -16
	movq	%rsp, %rbp
	.cfi_def_cfa_register 6
	pushq	%rbx
	subq	$56, %rsp
	.cfi_offset 3, -24
	movq	%rdi, -40(%rbp)
	movq	%rsi, -48(%rbp)
	movq	%rdx, -56(%rbp)
	movq	%fs:40, %rax
	movq	%rax, -24(%rbp)
	xorl	%eax, %eax
	movq	-48(%rbp), %rax
	movq	%rax, %rdi
	call	_ZN9__gnu_cxx17__is_null_pointerIKcEEbPT_
	testb	%al, %al
	je	.L60
	movq	-48(%rbp), %rax
	cmpq	-56(%rbp), %rax
	je	.L60
	movl	$1, %eax
	jmp	.L61
.L60:
	movl	$0, %eax
.L61:
	testb	%al, %al
	je	.L62
	leaq	.LC8(%rip), %rax
	movq	%rax, %rdi
.LEHB9:
	call	_ZSt19__throw_logic_errorPKc@PLT
.L62:
	movq	-56(%rbp), %rdx
	movq	-48(%rbp), %rax
	movq	%rdx, %rsi
	movq	%rax, %rdi
	call	_ZSt8distanceIPKcENSt15iterator_traitsIT_E15difference_typeES3_S3_
	movq	%rax, -32(%rbp)
	movq	-32(%rbp), %rax
	cmpq	$15, %rax
	jbe	.L63
	leaq	-32(%rbp), %rcx
	movq	-40(%rbp), %rax
	movl	$0, %edx
	movq	%rcx, %rsi
	movq	%rax, %rdi
	call	_ZNSt7__cxx1112basic_stringIcSt11char_traitsIcESaIcEE9_M_createERmm@PLT
	movq	%rax, %rdx
	movq	-40(%rbp), %rax
	movq	%rdx, %rsi
	movq	%rax, %rdi
	call	_ZNSt7__cxx1112basic_stringIcSt11char_traitsIcESaIcEE7_M_dataEPc@PLT
	movq	-32(%rbp), %rdx
	movq	-40(%rbp), %rax
	movq	%rdx, %rsi
	movq	%rax, %rdi
	call	_ZNSt7__cxx1112basic_stringIcSt11char_traitsIcESaIcEE11_M_capacityEm@PLT
.LEHE9:
.L63:
	movq	-40(%rbp), %rax
	movq	%rax, %rdi
.LEHB10:
	call	_ZNKSt7__cxx1112basic_stringIcSt11char_traitsIcESaIcEE7_M_dataEv@PLT
.LEHE10:
	movq	%rax, %rcx
	movq	-56(%rbp), %rdx
	movq	-48(%rbp), %rax
	movq	%rax, %rsi
	movq	%rcx, %rdi
	call	_ZNSt7__cxx1112basic_stringIcSt11char_traitsIcESaIcEE13_S_copy_charsEPcPKcS7_@PLT
	movq	-32(%rbp), %rdx
	movq	-40(%rbp), %rax
	movq	%rdx, %rsi
	movq	%rax, %rdi
.LEHB11:
	call	_ZNSt7__cxx1112basic_stringIcSt11char_traitsIcESaIcEE13_M_set_lengthEm@PLT
.LEHE11:
	nop
	movq	-24(%rbp), %rax
	subq	%fs:40, %rax
	je	.L66
	jmp	.L69
.L67:
	endbr64
	movq	%rax, %rdi
	call	__cxa_begin_catch@PLT
	movq	-40(%rbp), %rax
	movq	%rax, %rdi
.LEHB12:
	call	_ZNSt7__cxx1112basic_stringIcSt11char_traitsIcESaIcEE10_M_disposeEv@PLT
	call	__cxa_rethrow@PLT
.LEHE12:
.L68:
	endbr64
	movq	%rax, %rbx
	call	__cxa_end_catch@PLT
	movq	%rbx, %rax
	movq	%rax, %rdi
.LEHB13:
	call	_Unwind_Resume@PLT
.LEHE13:
.L69:
	call	__stack_chk_fail@PLT
.L66:
	movq	-8(%rbp), %rbx
	leave
	.cfi_def_cfa 7, 8
	ret
	.cfi_endproc
.LFE4059:
	.section	.gcc_except_table._ZNSt7__cxx1112basic_stringIcSt11char_traitsIcESaIcEE12_M_constructIPKcEEvT_S8_St20forward_iterator_tag,"aG",@progbits,_ZNSt7__cxx1112basic_stringIcSt11char_traitsIcESaIcEE12_M_constructIPKcEEvT_S8_St20forward_iterator_tag,comdat
	.align 4
.LLSDA4059:
	.byte	0xff
	.byte	0x9b
	.uleb128 .LLSDATT4059-.LLSDATTD4059
.LLSDATTD4059:
	.byte	0x1
	.uleb128 .LLSDACSE4059-.LLSDACSB4059
.LLSDACSB4059:
	.uleb128 .LEHB9-.LFB4059
	.uleb128 .LEHE9-.LEHB9
	.uleb128 0
	.uleb128 0
	.uleb128 .LEHB10-.LFB4059
	.uleb128 .LEHE10-.LEHB10
	.uleb128 .L67-.LFB4059
	.uleb128 0x1
	.uleb128 .LEHB11-.LFB4059
	.uleb128 .LEHE11-.LEHB11
	.uleb128 0
	.uleb128 0
	.uleb128 .LEHB12-.LFB4059
	.uleb128 .LEHE12-.LEHB12
	.uleb128 .L68-.LFB4059
	.uleb128 0
	.uleb128 .LEHB13-.LFB4059
	.uleb128 .LEHE13-.LEHB13
	.uleb128 0
	.uleb128 0
.LLSDACSE4059:
	.byte	0x1
	.byte	0
	.align 4
	.long	0

.LLSDATT4059:
	.section	.text._ZNSt7__cxx1112basic_stringIcSt11char_traitsIcESaIcEE12_M_constructIPKcEEvT_S8_St20forward_iterator_tag,"axG",@progbits,_ZNSt7__cxx1112basic_stringIcSt11char_traitsIcESaIcEE12_M_constructIPKcEEvT_S8_St20forward_iterator_tag,comdat
	.size	_ZNSt7__cxx1112basic_stringIcSt11char_traitsIcESaIcEE12_M_constructIPKcEEvT_S8_St20forward_iterator_tag, .-_ZNSt7__cxx1112basic_stringIcSt11char_traitsIcESaIcEE12_M_constructIPKcEEvT_S8_St20forward_iterator_tag
	.section	.text._ZN4blas4conjIdEET_S1_,"axG",@progbits,_ZN4blas4conjIdEET_S1_,comdat
	.weak	_ZN4blas4conjIdEET_S1_
	.type	_ZN4blas4conjIdEET_S1_, @function
_ZN4blas4conjIdEET_S1_:
.LFB4061:
	.cfi_startproc
	endbr64
	pushq	%rbp
	.cfi_def_cfa_offset 16
	.cfi_offset 6, -16
	movq	%rsp, %rbp
	.cfi_def_cfa_register 6
	movsd	%xmm0, -8(%rbp)
	movsd	-8(%rbp), %xmm0
	movq	%xmm0, %rax
	movq	%rax, %xmm0
	popq	%rbp
	.cfi_def_cfa 7, 8
	ret
	.cfi_endproc
.LFE4061:
	.size	_ZN4blas4conjIdEET_S1_, .-_ZN4blas4conjIdEET_S1_
	.section	.text._ZN9__gnu_cxx17__is_null_pointerIKcEEbPT_,"axG",@progbits,_ZN9__gnu_cxx17__is_null_pointerIKcEEbPT_,comdat
	.weak	_ZN9__gnu_cxx17__is_null_pointerIKcEEbPT_
	.type	_ZN9__gnu_cxx17__is_null_pointerIKcEEbPT_, @function
_ZN9__gnu_cxx17__is_null_pointerIKcEEbPT_:
.LFB4124:
	.cfi_startproc
	endbr64
	pushq	%rbp
	.cfi_def_cfa_offset 16
	.cfi_offset 6, -16
	movq	%rsp, %rbp
	.cfi_def_cfa_register 6
	movq	%rdi, -8(%rbp)
	cmpq	$0, -8(%rbp)
	sete	%al
	popq	%rbp
	.cfi_def_cfa 7, 8
	ret
	.cfi_endproc
.LFE4124:
	.size	_ZN9__gnu_cxx17__is_null_pointerIKcEEbPT_, .-_ZN9__gnu_cxx17__is_null_pointerIKcEEbPT_
	.section	.text._ZSt19__iterator_categoryIPKcENSt15iterator_traitsIT_E17iterator_categoryERKS3_,"axG",@progbits,_ZSt19__iterator_categoryIPKcENSt15iterator_traitsIT_E17iterator_categoryERKS3_,comdat
	.weak	_ZSt19__iterator_categoryIPKcENSt15iterator_traitsIT_E17iterator_categoryERKS3_
	.type	_ZSt19__iterator_categoryIPKcENSt15iterator_traitsIT_E17iterator_categoryERKS3_, @function
_ZSt19__iterator_categoryIPKcENSt15iterator_traitsIT_E17iterator_categoryERKS3_:
.LFB4125:
	.cfi_startproc
	endbr64
	pushq	%rbp
	.cfi_def_cfa_offset 16
	.cfi_offset 6, -16
	movq	%rsp, %rbp
	.cfi_def_cfa_register 6
	movq	%rdi, -8(%rbp)
	popq	%rbp
	.cfi_def_cfa 7, 8
	ret
	.cfi_endproc
.LFE4125:
	.size	_ZSt19__iterator_categoryIPKcENSt15iterator_traitsIT_E17iterator_categoryERKS3_, .-_ZSt19__iterator_categoryIPKcENSt15iterator_traitsIT_E17iterator_categoryERKS3_
	.section	.text._ZSt10__distanceIPKcENSt15iterator_traitsIT_E15difference_typeES3_S3_St26random_access_iterator_tag,"axG",@progbits,_ZSt10__distanceIPKcENSt15iterator_traitsIT_E15difference_typeES3_S3_St26random_access_iterator_tag,comdat
	.weak	_ZSt10__distanceIPKcENSt15iterator_traitsIT_E15difference_typeES3_S3_St26random_access_iterator_tag
	.type	_ZSt10__distanceIPKcENSt15iterator_traitsIT_E15difference_typeES3_S3_St26random_access_iterator_tag, @function
_ZSt10__distanceIPKcENSt15iterator_traitsIT_E15difference_typeES3_S3_St26random_access_iterator_tag:
.LFB4126:
	.cfi_startproc
	endbr64
	pushq	%rbp
	.cfi_def_cfa_offset 16
	.cfi_offset 6, -16
	movq	%rsp, %rbp
	.cfi_def_cfa_register 6
	movq	%rdi, -8(%rbp)
	movq	%rsi, -16(%rbp)
	movq	-16(%rbp), %rax
	subq	-8(%rbp), %rax
	popq	%rbp
	.cfi_def_cfa 7, 8
	ret
	.cfi_endproc
.LFE4126:
	.size	_ZSt10__distanceIPKcENSt15iterator_traitsIT_E15difference_typeES3_S3_St26random_access_iterator_tag, .-_ZSt10__distanceIPKcENSt15iterator_traitsIT_E15difference_typeES3_S3_St26random_access_iterator_tag
	.weak	_ZTVN4blas5ErrorE
	.section	.data.rel.ro.local._ZTVN4blas5ErrorE,"awG",@progbits,_ZTVN4blas5ErrorE,comdat
	.align 8
	.type	_ZTVN4blas5ErrorE, @object
	.size	_ZTVN4blas5ErrorE, 40
_ZTVN4blas5ErrorE:
	.quad	0
	.quad	_ZTIN4blas5ErrorE
	.quad	_ZN4blas5ErrorD1Ev
	.quad	_ZN4blas5ErrorD0Ev
	.quad	_ZNK4blas5Error4whatEv
	.section	.text._ZN4blas5ErrorD2Ev,"axG",@progbits,_ZN4blas5ErrorD5Ev,comdat
	.align 2
	.weak	_ZN4blas5ErrorD2Ev
	.type	_ZN4blas5ErrorD2Ev, @function
_ZN4blas5ErrorD2Ev:
.LFB4264:
	.cfi_startproc
	endbr64
	pushq	%rbp
	.cfi_def_cfa_offset 16
	.cfi_offset 6, -16
	movq	%rsp, %rbp
	.cfi_def_cfa_register 6
	subq	$16, %rsp
	movq	%rdi, -8(%rbp)
	leaq	16+_ZTVN4blas5ErrorE(%rip), %rdx
	movq	-8(%rbp), %rax
	movq	%rdx, (%rax)
	movq	-8(%rbp), %rax
	addq	$8, %rax
	movq	%rax, %rdi
	call	_ZNSt7__cxx1112basic_stringIcSt11char_traitsIcESaIcEED1Ev@PLT
	movq	-8(%rbp), %rax
	movq	%rax, %rdi
	call	_ZNSt9exceptionD2Ev@PLT
	nop
	leave
	.cfi_def_cfa 7, 8
	ret
	.cfi_endproc
.LFE4264:
	.size	_ZN4blas5ErrorD2Ev, .-_ZN4blas5ErrorD2Ev
	.weak	_ZN4blas5ErrorD1Ev
	.set	_ZN4blas5ErrorD1Ev,_ZN4blas5ErrorD2Ev
	.section	.text._ZN4blas5ErrorD0Ev,"axG",@progbits,_ZN4blas5ErrorD5Ev,comdat
	.align 2
	.weak	_ZN4blas5ErrorD0Ev
	.type	_ZN4blas5ErrorD0Ev, @function
_ZN4blas5ErrorD0Ev:
.LFB4266:
	.cfi_startproc
	endbr64
	pushq	%rbp
	.cfi_def_cfa_offset 16
	.cfi_offset 6, -16
	movq	%rsp, %rbp
	.cfi_def_cfa_register 6
	subq	$16, %rsp
	movq	%rdi, -8(%rbp)
	movq	-8(%rbp), %rax
	movq	%rax, %rdi
	call	_ZN4blas5ErrorD1Ev
	movq	-8(%rbp), %rax
	movl	$40, %esi
	movq	%rax, %rdi
	call	_ZdlPvm@PLT
	leave
	.cfi_def_cfa 7, 8
	ret
	.cfi_endproc
.LFE4266:
	.size	_ZN4blas5ErrorD0Ev, .-_ZN4blas5ErrorD0Ev
	.weak	_ZTIN4blas5ErrorE
	.section	.data.rel.ro._ZTIN4blas5ErrorE,"awG",@progbits,_ZTIN4blas5ErrorE,comdat
	.align 8
	.type	_ZTIN4blas5ErrorE, @object
	.size	_ZTIN4blas5ErrorE, 24
_ZTIN4blas5ErrorE:
	.quad	_ZTVN10__cxxabiv120__si_class_type_infoE+16
	.quad	_ZTSN4blas5ErrorE
	.quad	_ZTISt9exception
	.weak	_ZTSN4blas5ErrorE
	.section	.rodata._ZTSN4blas5ErrorE,"aG",@progbits,_ZTSN4blas5ErrorE,comdat
	.align 8
	.type	_ZTSN4blas5ErrorE, @object
	.size	_ZTSN4blas5ErrorE, 14
_ZTSN4blas5ErrorE:
	.string	"N4blas5ErrorE"
	.text
	.type	_Z41__static_initialization_and_destruction_0ii, @function
_Z41__static_initialization_and_destruction_0ii:
.LFB4267:
	.cfi_startproc
	endbr64
	pushq	%rbp
	.cfi_def_cfa_offset 16
	.cfi_offset 6, -16
	movq	%rsp, %rbp
	.cfi_def_cfa_register 6
	subq	$16, %rsp
	movl	%edi, -4(%rbp)
	movl	%esi, -8(%rbp)
	cmpl	$1, -4(%rbp)
	jne	.L82
	cmpl	$65535, -8(%rbp)
	jne	.L82
	leaq	_ZStL8__ioinit(%rip), %rax
	movq	%rax, %rdi
	call	_ZNSt8ios_base4InitC1Ev@PLT
	leaq	__dso_handle(%rip), %rax
	movq	%rax, %rdx
	leaq	_ZStL8__ioinit(%rip), %rax
	movq	%rax, %rsi
	movq	_ZNSt8ios_base4InitD1Ev@GOTPCREL(%rip), %rax
	movq	%rax, %rdi
	call	__cxa_atexit@PLT
.L82:
	nop
	leave
	.cfi_def_cfa 7, 8
	ret
	.cfi_endproc
.LFE4267:
	.size	_Z41__static_initialization_and_destruction_0ii, .-_Z41__static_initialization_and_destruction_0ii
	.type	_GLOBAL__sub_I_main, @function
_GLOBAL__sub_I_main:
.LFB4268:
	.cfi_startproc
	endbr64
	pushq	%rbp
	.cfi_def_cfa_offset 16
	.cfi_offset 6, -16
	movq	%rsp, %rbp
	.cfi_def_cfa_register 6
	movl	$65535, %esi
	movl	$1, %edi
	call	_Z41__static_initialization_and_destruction_0ii
	popq	%rbp
	.cfi_def_cfa 7, 8
	ret
	.cfi_endproc
.LFE4268:
	.size	_GLOBAL__sub_I_main, .-_GLOBAL__sub_I_main
	.section	.init_array,"aw"
	.align 8
	.quad	_GLOBAL__sub_I_main
	.section	.rodata
	.align 8
.LC1:
	.long	-1717986918
	.long	1070176665
	.align 8
.LC2:
	.long	858993459
	.long	1070805811
	.hidden	DW.ref.__gxx_personality_v0
	.weak	DW.ref.__gxx_personality_v0
	.section	.data.rel.local.DW.ref.__gxx_personality_v0,"awG",@progbits,DW.ref.__gxx_personality_v0,comdat
	.align 8
	.type	DW.ref.__gxx_personality_v0, @object
	.size	DW.ref.__gxx_personality_v0, 8
DW.ref.__gxx_personality_v0:
	.quad	__gxx_personality_v0
	.hidden	__dso_handle
	.ident	"GCC: (Ubuntu 11.3.0-1ubuntu1~22.04) 11.3.0"
	.section	.note.GNU-stack,"",@progbits
	.section	.note.gnu.property,"a"
	.align 8
	.long	1f - 0f
	.long	4f - 1f
	.long	5
0:
	.string	"GNU"
1:
	.align 8
	.long	0xc0000002
	.long	3f - 2f
2:
	.long	0x3
3:
	.align 8
4:
